((dp1
S'\n'
I0
sS'!'
I1
sS' '
I2
sS"'"
I3
sS'-'
I4
sS','
I5
sS'.'
I6
sS';'
I7
sS':'
I8
sS'?'
I9
sS'A'
I10
sS'C'
I11
sS'B'
I12
sS'E'
I13
sS'D'
I14
sS'G'
I15
sS'F'
I16
sS'I'
I17
sS'H'
I18
sS'K'
I19
sS'J'
I20
sS'M'
I21
sS'L'
I22
sS'O'
I23
sS'N'
I24
sS'Q'
I25
sS'P'
I26
sS'S'
I27
sS'R'
I28
sS'U'
I29
sS'T'
I30
sS'W'
I31
sS'V'
I32
sS'Y'
I33
sS'['
I34
sS'Z'
I35
sS']'
I36
sS'a'
I37
sS'c'
I38
sS'b'
I39
sS'e'
I40
sS'd'
I41
sS'g'
I42
sS'f'
I43
sS'i'
I44
sS'h'
I45
sS'k'
I46
sS'j'
I47
sS'm'
I48
sS'l'
I49
sS'o'
I50
sS'n'
I51
sS'q'
I52
sS'p'
I53
sS's'
I54
sS'r'
I55
sS'u'
I56
sS't'
I57
sS'w'
I58
sS'v'
I59
sS'y'
I60
sS'x'
I61
sS'z'
I62
s(dp2
I0
S'\n'
sI1
S'!'
sI2
S' '
sI3
S"'"
sI4
S'-'
sI5
S','
sI6
S'.'
sI7
S';'
sI8
S':'
sI9
S'?'
sI10
S'A'
sI11
S'C'
sI12
S'B'
sI13
S'E'
sI14
S'D'
sI15
S'G'
sI16
S'F'
sI17
S'I'
sI18
S'H'
sI19
S'K'
sI20
S'J'
sI21
S'M'
sI22
S'L'
sI23
S'O'
sI24
S'N'
sI25
S'Q'
sI26
S'P'
sI27
S'S'
sI28
S'R'
sI29
S'U'
sI30
S'T'
sI31
S'W'
sI32
S'V'
sI33
S'Y'
sI34
S'['
sI35
S'Z'
sI36
S']'
sI37
S'a'
sI38
S'c'
sI39
S'b'
sI40
S'e'
sI41
S'd'
sI42
S'g'
sI43
S'f'
sI44
S'i'
sI45
S'h'
sI46
S'k'
sI47
S'j'
sI48
S'm'
sI49
S'l'
sI50
S'o'
sI51
S'n'
sI52
S'q'
sI53
S'p'
sI54
S's'
sI55
S'r'
sI56
S'u'
sI57
S't'
sI58
S'w'
sI59
S'v'
sI60
S'y'
sI61
S'x'
sI62
S'z'
sI00
t.